; Function Attrs: mustprogress null_pointer_is_valid sspstrong uwtable
define void @_ZN15FilterListModelC2EP7QObject(ptr noundef align 8 dereferenceable_or_null(48) %0, ptr noundef %1) unnamed_addr #0 align 2 personality ptr @__gxx_personality_v0 {
  tail call void @_ZN18QAbstractListModelC2EP7QObject(ptr noundef align 8 dereferenceable_or_null(16) %0, ptr noundef %1)
  store ptr getelementptr inbounds nuw inrange(-16, 392) (i8, ptr @_ZTV15FilterListModel, i64 16), ptr %0, align 8
  %3 = getelementptr inbounds nuw i8, ptr %0, i64 16
  store i32 0, ptr %3, align 8
  %4 = getelementptr inbounds nuw i8, ptr %0, i64 24
  tail call void @llvm.memset.p0.i64(ptr noundef nonnull align 8 dereferenceable(24) dereferenceable_or_null(24) %4, i8 0, i64 24, i1 false)
  invoke void @_ZN15FilterListModel6reloadEv(ptr noundef align 8 dereferenceable_or_null(48) %0)
          to label %5 unwind label %6

5:                                                ; preds = %2
  ret void

6:                                                ; preds = %2
  %7 = landingpad { ptr, i32 }
          cleanup
  tail call void @_ZN5QListI7QStringED2Ev(ptr noundef nonnull align 8 dereferenceable_or_null(24) %4) #21
  tail call void @_ZN18QAbstractListModelD2Ev(ptr noundef align 8 dereferenceable_or_null(16) %0) #21
  resume { ptr, i32 } %7
}